target datalayout = "e-m:e-p270:32:32-p271:32:32-p272:64:64-i64:64-i128:128-f80:128-n8:16:32:64-S128"
target triple = "x86_64-pc-linux-gnu"

%struct._mka_ckn_info = type { %struct._mka_ckn_info_key, ptr }
%struct._mka_ckn_info_key = type { ptr, i32 }

@.str.176 = private unnamed_addr constant [60 x i8] c"Invalid CKN length! CKNs need to be between 1 and 32 bytes.\00", align 1

; Function Attrs: null_pointer_is_valid sspstrong uwtable
define internal zeroext i1 @ckn_info_update_cb(ptr noundef %0, ptr noundef %1) #0 {
  %3 = alloca i1, align 1
  %4 = alloca ptr, align 8
  %5 = alloca ptr, align 8
  %6 = alloca ptr, align 8
  %7 = alloca i32, align 4
  store ptr %0, ptr %4, align 8
  store ptr %1, ptr %5, align 8
  call void @llvm.lifetime.start.p0(i64 8, ptr %6) #8
  %8 = load ptr, ptr %4, align 8
  store ptr %8, ptr %6, align 8
  %9 = load ptr, ptr %6, align 8
  %10 = getelementptr inbounds nuw %struct._mka_ckn_info, ptr %9, i32 0, i32 0
  %11 = getelementptr inbounds nuw %struct._mka_ckn_info_key, ptr %10, i32 0, i32 1
  %12 = load i32, ptr %11, align 8
  %13 = icmp eq i32 %12, 0
  br i1 %13, label %20, label %14

14:                                               ; preds = %2
  %15 = load ptr, ptr %6, align 8
  %16 = getelementptr inbounds nuw %struct._mka_ckn_info, ptr %15, i32 0, i32 0
  %17 = getelementptr inbounds nuw %struct._mka_ckn_info_key, ptr %16, i32 0, i32 1
  %18 = load i32, ptr %17, align 8
  %19 = icmp ugt i32 %18, 32
  br i1 %19, label %20, label %23

20:                                               ; preds = %14, %2
  %21 = call noalias ptr (ptr, ptr, ...) @wmem_strdup_printf(ptr noundef null, ptr noundef @.str.176)
  %22 = load ptr, ptr %5, align 8
  store ptr %21, ptr %22, align 8
  store i1 false, ptr %3, align 1
  store i32 1, ptr %7, align 4
  br label %24

23:                                               ; preds = %14
  store i1 true, ptr %3, align 1
  store i32 1, ptr %7, align 4
  br label %24

24:                                               ; preds = %23, %20
  call void @llvm.lifetime.end.p0(i64 8, ptr %6) #8
  %25 = load i1, ptr %3, align 1
  ret i1 %25
}