; Function Attrs: null_pointer_is_valid sspstrong uwtable
define internal noundef zeroext i1 @ckn_info_update_cb(ptr noundef readonly captures(none) %0, ptr noundef writeonly captures(none) %1) #0 {
  %3 = getelementptr inbounds nuw i8, ptr %0, i64 8
  %4 = load i32, ptr %3, align 8
  %5 = add i32 %4, -1
  %or.cond = icmp ult i32 %5, 32
  br i1 %or.cond, label %8, label %6

6:                                                ; preds = %2
  %7 = tail call noalias ptr (ptr, ptr, ...) @wmem_strdup_printf(ptr noundef null, ptr noundef nonnull @.str.176)
  store ptr %7, ptr %1, align 8
  br label %8

8:                                                ; preds = %2, %6
  ret i1 %or.cond
}